target datalayout = "e-m:e-p270:32:32-p271:32:32-p272:64:64-i64:64-i128:128-f80:128-n8:16:32:64-S128"
target triple = "x86_64-pc-linux-gnu"

%struct.H5HF_t = type { ptr, ptr }
%struct.H5HF_hdr_t = type { %struct.H5C_cache_entry_t, i32, i32, i8, i8, i8, i8, %struct.H5HF_dtable_t, i64, i64, i32, i64, i64, %struct.H5O_pline_t, i64, i32, i64, i64, i64, i64, i64, i64, i64, i64, i64, i64, i64, i32, ptr, i64, i8, i8, i8, ptr, i32, ptr, %struct.H5HF_block_iter_t, ptr, i64, i8, i8, i64, i8, i8, i8, i8 }
%struct.H5C_cache_entry_t = type { ptr, i64, i64, ptr, i8, ptr, i8, i8, i8, i8, i32, i8, i8, i8, i8, i8, i32, ptr, i32, i32, i32, i32, i32, i8, i8, ptr, ptr, ptr, ptr, ptr, ptr, i8, i32, i8, i64, ptr, i64, i64, i32, i8, i32, i32, i8, ptr, ptr, ptr }
%struct.H5HF_dtable_t = type { %struct.H5HF_dtable_cparam_t, i64, i32, i32, i32, i32, i32, i32, i32, i64, ptr, ptr, ptr, ptr }
%struct.H5HF_dtable_cparam_t = type { i32, i64, i64, i32, i32 }
%struct.H5O_pline_t = type { %struct.H5O_shared_t, i32, i64, i64, ptr }
%struct.H5O_shared_t = type { i32, ptr, i32, %union.anon }
%union.anon = type { %struct.H5O_mesg_loc_t }
%struct.H5O_mesg_loc_t = type { i32, i64 }
%struct.H5HF_block_iter_t = type { i8, ptr }

@H5HF_init_g = global i8 0, align 1
@H5_libterm_g = external global i8, align 1
@.str = private unnamed_addr constant [98 x i8] c"generated/home/dtcxzyw/WorkSpace/Projects/compilers/llvm-opt-benchmark/bench/hdf5/hdf5/src/H5HF.c\00", align 1
@H5E_HEAP_g = external global i64, align 8
@H5E_UNSUPPORTED_g = external global i64, align 8
@H5E_VERSION_g = external global i64, align 8
@.str.14 = private unnamed_addr constant [26 x i8] c"incorrect heap ID version\00", align 1
@stderr = external global ptr, align 8
@.str.18 = private unnamed_addr constant [37 x i8] c"%s: Heap ID type not supported yet!\0A\00", align 1
@.str.19 = private unnamed_addr constant [31 x i8] c"heap ID type not supported yet\00", align 1
@__func__.H5HF_remove = private unnamed_addr constant [12 x i8] c"H5HF_remove\00", align 1
@H5E_CANTREMOVE_g = external global i64, align 8
@.str.30 = private unnamed_addr constant [38 x i8] c"can't remove object from fractal heap\00", align 1
@.str.31 = private unnamed_addr constant [45 x i8] c"can't remove 'huge' object from fractal heap\00", align 1
@.str.32 = private unnamed_addr constant [45 x i8] c"can't remove 'tiny' object from fractal heap\00", align 1

; Function Attrs: nounwind uwtable
define i32 @H5HF_remove(ptr noundef %0, ptr noundef %1) #0 {
  %3 = alloca ptr, align 8
  %4 = alloca ptr, align 8
  %5 = alloca ptr, align 8
  %6 = alloca i8, align 1
  %7 = alloca i32, align 4
  %8 = alloca i8, align 1
  store ptr %0, ptr %3, align 8, !tbaa !17
  store ptr %1, ptr %4, align 8, !tbaa !3
  call void @llvm.lifetime.start.p0(i64 8, ptr %5) #6
  %9 = load ptr, ptr %4, align 8, !tbaa !3
  store ptr %9, ptr %5, align 8, !tbaa !52
  call void @llvm.lifetime.start.p0(i64 1, ptr %6) #6
  call void @llvm.lifetime.start.p0(i64 4, ptr %7) #6
  store i32 0, ptr %7, align 4, !tbaa !24
  call void @llvm.lifetime.start.p0(i64 1, ptr %8) #6
  store i8 0, ptr %8, align 1, !tbaa !9
  %10 = load i8, ptr @H5HF_init_g, align 1, !tbaa !9, !range !11, !noundef !12
  %11 = trunc i8 %10 to i1
  br i1 %11, label %16, label %12

12:                                               ; preds = %2
  %13 = load i8, ptr @H5_libterm_g, align 1, !tbaa !9, !range !11, !noundef !12
  %14 = trunc i8 %13 to i1
  %15 = xor i1 %14, true
  br label %16

16:                                               ; preds = %12, %2
  %17 = phi i1 [ false, %2 ], [ %15, %12 ]
  %18 = xor i1 %17, true
  %19 = xor i1 %18, true
  %20 = zext i1 %19 to i32
  %21 = sext i32 %20 to i64
  %22 = call i64 @llvm.expect.i64(i64 %21, i64 0)
  %23 = icmp ne i64 %22, 0
  br i1 %23, label %24, label %25

24:                                               ; preds = %16
  store i8 1, ptr @H5HF_init_g, align 1, !tbaa !9
  br label %25

25:                                               ; preds = %24, %16
  %26 = load i8, ptr @H5HF_init_g, align 1, !tbaa !9, !range !11, !noundef !12
  %27 = trunc i8 %26 to i1
  br i1 %27, label %32, label %28

28:                                               ; preds = %25
  %29 = load i8, ptr @H5_libterm_g, align 1, !tbaa !9, !range !11, !noundef !12
  %30 = trunc i8 %29 to i1
  %31 = xor i1 %30, true
  br label %32

32:                                               ; preds = %28, %25
  %33 = phi i1 [ true, %25 ], [ %31, %28 ]
  %34 = xor i1 %33, true
  %35 = xor i1 %34, true
  %36 = zext i1 %35 to i32
  %37 = sext i32 %36 to i64
  %38 = call i64 @llvm.expect.i64(i64 %37, i64 1)
  %39 = icmp ne i64 %38, 0
  br i1 %39, label %40, label %194

40:                                               ; preds = %32
  %41 = load ptr, ptr %5, align 8, !tbaa !52
  %42 = load i8, ptr %41, align 1, !tbaa !54
  store i8 %42, ptr %6, align 1, !tbaa !54
  %43 = load i8, ptr %6, align 1, !tbaa !54
  %44 = zext i8 %43 to i32
  %45 = and i32 %44, 192
  %46 = icmp ne i32 %45, 0
  br i1 %46, label %47, label %66

47:                                               ; preds = %40
  br label %48

48:                                               ; preds = %47
  br label %49

49:                                               ; preds = %48
  br label %50

50:                                               ; preds = %49
  %51 = load i64, ptr @H5E_HEAP_g, align 8, !tbaa !7
  %52 = load i64, ptr @H5E_VERSION_g, align 8, !tbaa !7
  %53 = call i32 (ptr, ptr, i32, i64, i64, ptr, ...) @H5E_printf_stack(ptr noundef @.str, ptr noundef @__func__.H5HF_remove, i32 noundef 710, i64 noundef %51, i64 noundef %52, ptr noundef @.str.14)
  br label %54

54:                                               ; preds = %50
  br label %55

55:                                               ; preds = %54
  store i8 1, ptr %8, align 1, !tbaa !9
  %56 = load i8, ptr %8, align 1, !tbaa !9, !range !11, !noundef !12
  %57 = trunc i8 %56 to i1
  %58 = zext i1 %57 to i8
  store i8 %58, ptr %8, align 1, !tbaa !9
  br label %59

59:                                               ; preds = %55
  br label %60

60:                                               ; preds = %59
  br label %61

61:                                               ; preds = %60
  store i32 -1, ptr %7, align 4, !tbaa !24
  br label %193

62:                                               ; No predecessors!
  br label %63

63:                                               ; preds = %62
  br label %64

64:                                               ; preds = %63
  br label %65

65:                                               ; preds = %64
  br label %66

66:                                               ; preds = %65, %40
  %67 = load ptr, ptr %3, align 8, !tbaa !17
  %68 = getelementptr inbounds nuw %struct.H5HF_t, ptr %67, i32 0, i32 1
  %69 = load ptr, ptr %68, align 8, !tbaa !23
  %70 = load ptr, ptr %3, align 8, !tbaa !17
  %71 = getelementptr inbounds nuw %struct.H5HF_t, ptr %70, i32 0, i32 0
  %72 = load ptr, ptr %71, align 8, !tbaa !21
  %73 = getelementptr inbounds nuw %struct.H5HF_hdr_t, ptr %72, i32 0, i32 28
  store ptr %69, ptr %73, align 8, !tbaa !26
  %74 = load i8, ptr %6, align 1, !tbaa !54
  %75 = zext i8 %74 to i32
  %76 = and i32 %75, 48
  %77 = icmp eq i32 %76, 0
  br i1 %77, label %78, label %105

78:                                               ; preds = %66
  %79 = load ptr, ptr %3, align 8, !tbaa !17
  %80 = getelementptr inbounds nuw %struct.H5HF_t, ptr %79, i32 0, i32 0
  %81 = load ptr, ptr %80, align 8, !tbaa !21
  %82 = load ptr, ptr %5, align 8, !tbaa !52
  %83 = call i32 @H5HF__man_remove(ptr noundef %81, ptr noundef %82)
  %84 = icmp slt i32 %83, 0
  br i1 %84, label %85, label %104

85:                                               ; preds = %78
  br label %86

86:                                               ; preds = %85
  br label %87

87:                                               ; preds = %86
  br label %88

88:                                               ; preds = %87
  %89 = load i64, ptr @H5E_HEAP_g, align 8, !tbaa !7
  %90 = load i64, ptr @H5E_CANTREMOVE_g, align 8, !tbaa !7
  %91 = call i32 (ptr, ptr, i32, i64, i64, ptr, ...) @H5E_printf_stack(ptr noundef @.str, ptr noundef @__func__.H5HF_remove, i32 noundef 719, i64 noundef %89, i64 noundef %90, ptr noundef @.str.30)
  br label %92

92:                                               ; preds = %88
  br label %93

93:                                               ; preds = %92
  store i8 1, ptr %8, align 1, !tbaa !9
  %94 = load i8, ptr %8, align 1, !tbaa !9, !range !11, !noundef !12
  %95 = trunc i8 %94 to i1
  %96 = zext i1 %95 to i8
  store i8 %96, ptr %8, align 1, !tbaa !9
  br label %97

97:                                               ; preds = %93
  br label %98

98:                                               ; preds = %97
  br label %99

99:                                               ; preds = %98
  store i32 -1, ptr %7, align 4, !tbaa !24
  br label %193

100:                                              ; No predecessors!
  br label %101

101:                                              ; preds = %100
  br label %102

102:                                              ; preds = %101
  br label %103

103:                                              ; preds = %102
  br label %104

104:                                              ; preds = %103, %78
  br label %192

105:                                              ; preds = %66
  %106 = load i8, ptr %6, align 1, !tbaa !54
  %107 = zext i8 %106 to i32
  %108 = and i32 %107, 48
  %109 = icmp eq i32 %108, 16
  br i1 %109, label %110, label %137

110:                                              ; preds = %105
  %111 = load ptr, ptr %3, align 8, !tbaa !17
  %112 = getelementptr inbounds nuw %struct.H5HF_t, ptr %111, i32 0, i32 0
  %113 = load ptr, ptr %112, align 8, !tbaa !21
  %114 = load ptr, ptr %5, align 8, !tbaa !52
  %115 = call i32 @H5HF__huge_remove(ptr noundef %113, ptr noundef %114)
  %116 = icmp slt i32 %115, 0
  br i1 %116, label %117, label %136

117:                                              ; preds = %110
  br label %118

118:                                              ; preds = %117
  br label %119

119:                                              ; preds = %118
  br label %120

120:                                              ; preds = %119
  %121 = load i64, ptr @H5E_HEAP_g, align 8, !tbaa !7
  %122 = load i64, ptr @H5E_CANTREMOVE_g, align 8, !tbaa !7
  %123 = call i32 (ptr, ptr, i32, i64, i64, ptr, ...) @H5E_printf_stack(ptr noundef @.str, ptr noundef @__func__.H5HF_remove, i32 noundef 724, i64 noundef %121, i64 noundef %122, ptr noundef @.str.31)
  br label %124

124:                                              ; preds = %120
  br label %125

125:                                              ; preds = %124
  store i8 1, ptr %8, align 1, !tbaa !9
  %126 = load i8, ptr %8, align 1, !tbaa !9, !range !11, !noundef !12
  %127 = trunc i8 %126 to i1
  %128 = zext i1 %127 to i8
  store i8 %128, ptr %8, align 1, !tbaa !9
  br label %129

129:                                              ; preds = %125
  br label %130

130:                                              ; preds = %129
  br label %131

131:                                              ; preds = %130
  store i32 -1, ptr %7, align 4, !tbaa !24
  br label %193

132:                                              ; No predecessors!
  br label %133

133:                                              ; preds = %132
  br label %134

134:                                              ; preds = %133
  br label %135

135:                                              ; preds = %134
  br label %136

136:                                              ; preds = %135, %110
  br label %191

137:                                              ; preds = %105
  %138 = load i8, ptr %6, align 1, !tbaa !54
  %139 = zext i8 %138 to i32
  %140 = and i32 %139, 48
  %141 = icmp eq i32 %140, 32
  br i1 %141, label %142, label %169

142:                                              ; preds = %137
  %143 = load ptr, ptr %3, align 8, !tbaa !17
  %144 = getelementptr inbounds nuw %struct.H5HF_t, ptr %143, i32 0, i32 0
  %145 = load ptr, ptr %144, align 8, !tbaa !21
  %146 = load ptr, ptr %5, align 8, !tbaa !52
  %147 = call i32 @H5HF__tiny_remove(ptr noundef %145, ptr noundef %146)
  %148 = icmp slt i32 %147, 0
  br i1 %148, label %149, label %168

149:                                              ; preds = %142
  br label %150

150:                                              ; preds = %149
  br label %151

151:                                              ; preds = %150
  br label %152

152:                                              ; preds = %151
  %153 = load i64, ptr @H5E_HEAP_g, align 8, !tbaa !7
  %154 = load i64, ptr @H5E_CANTREMOVE_g, align 8, !tbaa !7
  %155 = call i32 (ptr, ptr, i32, i64, i64, ptr, ...) @H5E_printf_stack(ptr noundef @.str, ptr noundef @__func__.H5HF_remove, i32 noundef 729, i64 noundef %153, i64 noundef %154, ptr noundef @.str.32)
  br label %156

156:                                              ; preds = %152
  br label %157

157:                                              ; preds = %156
  store i8 1, ptr %8, align 1, !tbaa !9
  %158 = load i8, ptr %8, align 1, !tbaa !9, !range !11, !noundef !12
  %159 = trunc i8 %158 to i1
  %160 = zext i1 %159 to i8
  store i8 %160, ptr %8, align 1, !tbaa !9
  br label %161

161:                                              ; preds = %157
  br label %162

162:                                              ; preds = %161
  br label %163

163:                                              ; preds = %162
  store i32 -1, ptr %7, align 4, !tbaa !24
  br label %193

164:                                              ; No predecessors!
  br label %165

165:                                              ; preds = %164
  br label %166

166:                                              ; preds = %165
  br label %167

167:                                              ; preds = %166
  br label %168

168:                                              ; preds = %167, %142
  br label %190

169:                                              ; preds = %137
  %170 = load ptr, ptr @stderr, align 8, !tbaa !55
  %171 = call i32 (ptr, ptr, ...) @fprintf(ptr noundef %170, ptr noundef @.str.18, ptr noundef @__func__.H5HF_remove) #6
  br label %172

172:                                              ; preds = %169
  br label %173

173:                                              ; preds = %172
  br label %174

174:                                              ; preds = %173
  %175 = load i64, ptr @H5E_HEAP_g, align 8, !tbaa !7
  %176 = load i64, ptr @H5E_UNSUPPORTED_g, align 8, !tbaa !7
  %177 = call i32 (ptr, ptr, i32, i64, i64, ptr, ...) @H5E_printf_stack(ptr noundef @.str, ptr noundef @__func__.H5HF_remove, i32 noundef 733, i64 noundef %175, i64 noundef %176, ptr noundef @.str.19)
  br label %178

178:                                              ; preds = %174
  br label %179

179:                                              ; preds = %178
  store i8 1, ptr %8, align 1, !tbaa !9
  %180 = load i8, ptr %8, align 1, !tbaa !9, !range !11, !noundef !12
  %181 = trunc i8 %180 to i1
  %182 = zext i1 %181 to i8
  store i8 %182, ptr %8, align 1, !tbaa !9
  br label %183

183:                                              ; preds = %179
  br label %184

184:                                              ; preds = %183
  br label %185

185:                                              ; preds = %184
  store i32 -1, ptr %7, align 4, !tbaa !24
  br label %193

186:                                              ; No predecessors!
  br label %187

187:                                              ; preds = %186
  br label %188

188:                                              ; preds = %187
  br label %189

189:                                              ; preds = %188
  br label %190

190:                                              ; preds = %189, %168
  br label %191

191:                                              ; preds = %190, %136
  br label %192

192:                                              ; preds = %191, %104
  br label %193

193:                                              ; preds = %192, %185, %163, %131, %99, %61
  br label %194

194:                                              ; preds = %193, %32
  %195 = load i32, ptr %7, align 4, !tbaa !24
  call void @llvm.lifetime.end.p0(i64 1, ptr %8) #6
  call void @llvm.lifetime.end.p0(i64 4, ptr %7) #6
  call void @llvm.lifetime.end.p0(i64 1, ptr %6) #6
  call void @llvm.lifetime.end.p0(i64 8, ptr %5) #6
  ret i32 %195
}