; Function Attrs: nounwind uwtable
define range(i32 -1, 1) i32 @H5HF_remove(ptr noundef readonly captures(none) %0, ptr noundef %1) local_unnamed_addr #2 {
  %3 = load i8, ptr @H5HF_init_g, align 1, !tbaa !3, !range !7, !noundef !8
  %4 = trunc nuw i8 %3 to i1
  %5 = load i8, ptr @H5_libterm_g, align 1, !range !7
  %6 = trunc nuw i8 %5 to i1
  %7 = select i1 %4, i1 true, i1 %6
  br i1 %7, label %8, label %.thread, !prof !9

.thread:                                          ; preds = %2
  store i8 1, ptr @H5HF_init_g, align 1, !tbaa !3
  br label %11

8:                                                ; preds = %2
  %9 = xor i1 %6, true
  %10 = select i1 %4, i1 true, i1 %9
  br i1 %10, label %11, label %50, !prof !10

11:                                               ; preds = %.thread, %8
  %12 = load i8, ptr %1, align 1, !tbaa !45
  %.not = icmp ult i8 %12, 64
  br i1 %.not, label %17, label %13

13:                                               ; preds = %11
  %14 = load i64, ptr @H5E_HEAP_g, align 8, !tbaa !11
  %15 = load i64, ptr @H5E_VERSION_g, align 8, !tbaa !11
  %16 = tail call i32 (ptr, ptr, i32, i64, i64, ptr, ...) @H5E_printf_stack(ptr noundef nonnull @.str, ptr noundef nonnull @__func__.H5HF_remove, i32 noundef 710, i64 noundef %14, i64 noundef %15, ptr noundef nonnull @.str.14) #5
  br label %50

17:                                               ; preds = %11
  %18 = getelementptr inbounds nuw i8, ptr %0, i64 8
  %19 = load ptr, ptr %18, align 8, !tbaa !18
  %20 = load ptr, ptr %0, align 8, !tbaa !13
  %21 = getelementptr inbounds nuw i8, ptr %20, i64 600
  store ptr %19, ptr %21, align 8, !tbaa !19
  %22 = lshr i8 %12, 4
  switch i8 %22, label %.unreachabledefault [
    i8 0, label %23
    i8 1, label %30
    i8 2, label %37
    i8 3, label %44
  ]

23:                                               ; preds = %17
  %24 = tail call i32 @H5HF__man_remove(ptr noundef nonnull %20, ptr noundef nonnull %1) #5
  %25 = icmp slt i32 %24, 0
  br i1 %25, label %26, label %50

26:                                               ; preds = %23
  %27 = load i64, ptr @H5E_HEAP_g, align 8, !tbaa !11
  %28 = load i64, ptr @H5E_CANTREMOVE_g, align 8, !tbaa !11
  %29 = tail call i32 (ptr, ptr, i32, i64, i64, ptr, ...) @H5E_printf_stack(ptr noundef nonnull @.str, ptr noundef nonnull @__func__.H5HF_remove, i32 noundef 719, i64 noundef %27, i64 noundef %28, ptr noundef nonnull @.str.30) #5
  br label %50

30:                                               ; preds = %17
  %31 = tail call i32 @H5HF__huge_remove(ptr noundef nonnull %20, ptr noundef nonnull %1) #5
  %32 = icmp slt i32 %31, 0
  br i1 %32, label %33, label %50

33:                                               ; preds = %30
  %34 = load i64, ptr @H5E_HEAP_g, align 8, !tbaa !11
  %35 = load i64, ptr @H5E_CANTREMOVE_g, align 8, !tbaa !11
  %36 = tail call i32 (ptr, ptr, i32, i64, i64, ptr, ...) @H5E_printf_stack(ptr noundef nonnull @.str, ptr noundef nonnull @__func__.H5HF_remove, i32 noundef 724, i64 noundef %34, i64 noundef %35, ptr noundef nonnull @.str.31) #5
  br label %50

37:                                               ; preds = %17
  %38 = tail call i32 @H5HF__tiny_remove(ptr noundef nonnull %20, ptr noundef nonnull %1) #5
  %39 = icmp slt i32 %38, 0
  br i1 %39, label %40, label %50

40:                                               ; preds = %37
  %41 = load i64, ptr @H5E_HEAP_g, align 8, !tbaa !11
  %42 = load i64, ptr @H5E_CANTREMOVE_g, align 8, !tbaa !11
  %43 = tail call i32 (ptr, ptr, i32, i64, i64, ptr, ...) @H5E_printf_stack(ptr noundef nonnull @.str, ptr noundef nonnull @__func__.H5HF_remove, i32 noundef 729, i64 noundef %41, i64 noundef %42, ptr noundef nonnull @.str.32) #5
  br label %50

.unreachabledefault:                              ; preds = %17
  unreachable

44:                                               ; preds = %17
  %45 = load ptr, ptr @stderr, align 8, !tbaa !46
  %46 = tail call i32 (ptr, ptr, ...) @fprintf(ptr noundef %45, ptr noundef nonnull @.str.18, ptr noundef nonnull @__func__.H5HF_remove) #6
  %47 = load i64, ptr @H5E_HEAP_g, align 8, !tbaa !11
  %48 = load i64, ptr @H5E_UNSUPPORTED_g, align 8, !tbaa !11
  %49 = tail call i32 (ptr, ptr, i32, i64, i64, ptr, ...) @H5E_printf_stack(ptr noundef nonnull @.str, ptr noundef nonnull @__func__.H5HF_remove, i32 noundef 733, i64 noundef %47, i64 noundef %48, ptr noundef nonnull @.str.19) #5
  br label %50

50:                                               ; preds = %13, %26, %33, %40, %44, %30, %37, %23, %8
  %.0 = phi i32 [ -1, %13 ], [ -1, %26 ], [ 0, %23 ], [ -1, %33 ], [ 0, %30 ], [ -1, %40 ], [ 0, %37 ], [ -1, %44 ], [ 0, %8 ]
  ret i32 %.0
}